; Function Attrs: nounwind uwtable
define dso_local void @PHP_XXH32Init(ptr noundef writeonly captures(none) initializes((0, 48)) %0, ptr noundef %1) #0 {
  tail call void @llvm.memset.p0.i64(ptr noundef nonnull align 4 dereferenceable(48) %0, i8 0, i64 48, i1 false)
  %.not = icmp eq ptr %1, null
  br i1 %.not, label %zend_hash_str_find_deref.exit.thread20, label %3

3:                                                ; preds = %2
  %4 = tail call ptr @zend_hash_str_find(ptr noundef nonnull %1, ptr noundef nonnull @.str.2, i64 noundef 4) #16
  %.not.i = icmp eq ptr %4, null
  br i1 %.not.i, label %zend_hash_str_find_deref.exit.thread20, label %5

5:                                                ; preds = %3
  %6 = getelementptr inbounds nuw i8, ptr %4, i64 8
  %7 = load i8, ptr %6, align 8, !tbaa !4
  %8 = icmp eq i8 %7, 10
  br i1 %8, label %9, label %12, !prof !7

9:                                                ; preds = %5
  %10 = load ptr, ptr %4, align 8, !tbaa !4
  %11 = getelementptr inbounds nuw i8, ptr %10, i64 8
  %.phi.trans.insert = getelementptr inbounds nuw i8, ptr %10, i64 16
  %.pre = load i8, ptr %.phi.trans.insert, align 8, !tbaa !4
  br label %12

12:                                               ; preds = %9, %5
  %13 = phi i8 [ %7, %5 ], [ %.pre, %9 ]
  %.0.i.ph = phi ptr [ %4, %5 ], [ %11, %9 ]
  %14 = icmp eq i8 %13, 4
  br i1 %14, label %zend_hash_str_find_deref.exit, label %15

15:                                               ; preds = %12
  tail call void (ptr, i32, ptr, ...) @php_error_docref(ptr noundef null, i32 noundef 8192, ptr noundef nonnull @.str.3) #16
  br label %zend_hash_str_find_deref.exit.thread20

zend_hash_str_find_deref.exit:                    ; preds = %12
  %16 = load i64, ptr %.0.i.ph, align 8, !tbaa !4
  %17 = trunc i64 %16 to i32
  %18 = add i32 %17, 606290984
  %19 = add i32 %17, -2048144777
  %20 = add i32 %17, 1640531535
  br label %zend_hash_str_find_deref.exit.thread20

zend_hash_str_find_deref.exit.thread20:           ; preds = %2, %15, %3, %zend_hash_str_find_deref.exit
  %.sink25 = phi i32 [ %18, %zend_hash_str_find_deref.exit ], [ 606290984, %3 ], [ 606290984, %15 ], [ 606290984, %2 ]
  %.sink24 = phi i32 [ %19, %zend_hash_str_find_deref.exit ], [ -2048144777, %3 ], [ -2048144777, %15 ], [ -2048144777, %2 ]
  %.sink23 = phi i32 [ %17, %zend_hash_str_find_deref.exit ], [ 0, %3 ], [ 0, %15 ], [ 0, %2 ]
  %.sink = phi i32 [ %20, %zend_hash_str_find_deref.exit ], [ 1640531535, %3 ], [ 1640531535, %15 ], [ 1640531535, %2 ]
  store i64 0, ptr %0, align 1
  %.sroa.4.0..sroa_idx.i = getelementptr inbounds nuw i8, ptr %0, i64 8
  store i32 %.sink25, ptr %.sroa.4.0..sroa_idx.i, align 1
  %.sroa.5.0..sroa_idx.i = getelementptr inbounds nuw i8, ptr %0, i64 12
  store i32 %.sink24, ptr %.sroa.5.0..sroa_idx.i, align 1
  %.sroa.6.0..sroa_idx.i = getelementptr inbounds nuw i8, ptr %0, i64 16
  store i32 %.sink23, ptr %.sroa.6.0..sroa_idx.i, align 1
  %.sroa.7.0..sroa_idx.i = getelementptr inbounds nuw i8, ptr %0, i64 20
  store i32 %.sink, ptr %.sroa.7.0..sroa_idx.i, align 1
  %.sroa.8.0..sroa_idx.i = getelementptr inbounds nuw i8, ptr %0, i64 24
  tail call void @llvm.memset.p0.i64(ptr noundef nonnull align 1 dereferenceable(20) %.sroa.8.0..sroa_idx.i, i8 0, i64 20, i1 false)
  ret void
}